target datalayout = "e-m:e-p270:32:32-p271:32:32-p272:64:64-i64:64-i128:128-f80:128-n8:16:32:64-S128"
target triple = "x86_64-pc-linux-gnu"

%class.Register = type { i32 }
%class.XMMRegister = type { i32 }
%class.StubCodeMark = type { ptr, ptr }
%class.StubCodeGenerator = type { ptr, i8, ptr }
%class.CodeSection = type { ptr, ptr, ptr, ptr, ptr, ptr, ptr, ptr, i8, i8, i32, i8, ptr }
%class.AbstractAssembler = type { ptr, ptr, ptr }

@.str = private unnamed_addr constant [13 x i8] c"StubRoutines\00", align 1
@_ZL3rsp = internal constant %class.Register { i32 4 }, align 4
@_ZL7c_rarg3 = internal constant %class.Register { i32 1 }, align 4
@_ZL7c_rarg2 = internal constant %class.Register { i32 2 }, align 4
@_ZL7c_rarg1 = internal constant %class.Register { i32 6 }, align 4
@_ZL7c_rarg0 = internal constant %class.Register { i32 7 }, align 4
@_ZL4xmm0 = internal constant %class.XMMRegister zeroinitializer, align 4
@CodeEntryAlignment = external global i64, align 8
@_ZL4xmm1 = internal constant %class.XMMRegister { i32 1 }, align 4
@_ZL4xmm2 = internal constant %class.XMMRegister { i32 2 }, align 4
@_ZL4xmm3 = internal constant %class.XMMRegister { i32 3 }, align 4
@_ZL4xmm4 = internal constant %class.XMMRegister { i32 4 }, align 4
@_ZL4xmm5 = internal constant %class.XMMRegister { i32 5 }, align 4
@_ZL4xmm6 = internal constant %class.XMMRegister { i32 6 }, align 4
@_ZL4xmm7 = internal constant %class.XMMRegister { i32 7 }, align 4

; Function Attrs: mustprogress nounwind uwtable
define linkonce_odr hidden noundef ptr @_ZNK11CodeSection3endEv(ptr noundef nonnull align 8 dereferenceable(88) %0) #1 comdat align 2 {
  %2 = alloca ptr, align 8
  store ptr %0, ptr %2, align 8
  %3 = load ptr, ptr %2, align 8
  %4 = getelementptr inbounds %class.CodeSection, ptr %3, i32 0, i32 2
  %5 = load ptr, ptr %4, align 8
  ret ptr %5
}

; Function Attrs: mustprogress nounwind uwtable
define linkonce_odr hidden noundef ptr @_ZNK17AbstractAssembler12code_sectionEv(ptr noundef nonnull align 8 dereferenceable(24) %0) #1 comdat align 2 {
  %2 = alloca ptr, align 8
  store ptr %0, ptr %2, align 8
  %3 = load ptr, ptr %2, align 8
  %4 = getelementptr inbounds %class.AbstractAssembler, ptr %3, i32 0, i32 1
  %5 = load ptr, ptr %4, align 8
  ret ptr %5
}

; Function Attrs: mustprogress nounwind uwtable
define linkonce_odr hidden noundef ptr @_ZNK17AbstractAssembler2pcEv(ptr noundef nonnull align 8 dereferenceable(24) %0) #1 comdat align 2 {
  %2 = alloca ptr, align 8
  store ptr %0, ptr %2, align 8
  %3 = load ptr, ptr %2, align 8
  %4 = call noundef ptr @_ZNK17AbstractAssembler12code_sectionEv(ptr noundef nonnull align 8 dereferenceable(24) %3)
  %5 = call noundef ptr @_ZNK11CodeSection3endEv(ptr noundef nonnull align 8 dereferenceable(88) %4)
  ret ptr %5
}

; Function Attrs: mustprogress nounwind uwtable
define hidden noundef ptr @_ZN13StubGenerator26generate_sha1_implCompressEbPKc(ptr noundef nonnull align 8 dereferenceable(24) %0, i1 noundef zeroext %1, ptr noundef %2) #1 align 2 {
  %4 = alloca ptr, align 8
  %5 = alloca i8, align 1
  %6 = alloca ptr, align 8
  %7 = alloca %class.StubCodeMark, align 8
  %8 = alloca ptr, align 8
  %9 = alloca %class.Register, align 4
  %10 = alloca %class.Register, align 4
  %11 = alloca %class.Register, align 4
  %12 = alloca %class.Register, align 4
  %13 = alloca %class.XMMRegister, align 4
  %14 = alloca %class.XMMRegister, align 4
  %15 = alloca %class.XMMRegister, align 4
  %16 = alloca %class.XMMRegister, align 4
  %17 = alloca %class.XMMRegister, align 4
  %18 = alloca %class.XMMRegister, align 4
  %19 = alloca %class.XMMRegister, align 4
  %20 = alloca %class.XMMRegister, align 4
  %21 = alloca %class.Register, align 4
  %22 = alloca %class.XMMRegister, align 4
  %23 = alloca %class.XMMRegister, align 4
  %24 = alloca %class.XMMRegister, align 4
  %25 = alloca %class.XMMRegister, align 4
  %26 = alloca %class.XMMRegister, align 4
  %27 = alloca %class.XMMRegister, align 4
  %28 = alloca %class.XMMRegister, align 4
  %29 = alloca %class.XMMRegister, align 4
  %30 = alloca %class.Register, align 4
  %31 = alloca %class.Register, align 4
  %32 = alloca %class.Register, align 4
  %33 = alloca %class.Register, align 4
  %34 = alloca %class.Register, align 4
  %35 = alloca %class.Register, align 4
  store ptr %0, ptr %4, align 8
  %36 = zext i1 %1 to i8
  store i8 %36, ptr %5, align 1
  store ptr %2, ptr %6, align 8
  %37 = load ptr, ptr %4, align 8
  %38 = getelementptr inbounds %class.StubCodeGenerator, ptr %37, i32 0, i32 2
  %39 = load ptr, ptr %38, align 8
  %40 = load i64, ptr @CodeEntryAlignment, align 8
  %41 = trunc i64 %40 to i32
  call void @_ZN14MacroAssembler5alignEj(ptr noundef nonnull align 8 dereferenceable(40) %39, i32 noundef %41)
  %42 = load ptr, ptr %6, align 8
  call void @_ZN12StubCodeMarkC1EP17StubCodeGeneratorPKcS3_(ptr noundef nonnull align 8 dereferenceable(16) %7, ptr noundef %37, ptr noundef @.str, ptr noundef %42)
  %43 = getelementptr inbounds %class.StubCodeGenerator, ptr %37, i32 0, i32 2
  %44 = load ptr, ptr %43, align 8
  %45 = call noundef ptr @_ZNK17AbstractAssembler2pcEv(ptr noundef nonnull align 8 dereferenceable(24) %44)
  store ptr %45, ptr %8, align 8
  call void @llvm.memcpy.p0.p0.i64(ptr align 4 %9, ptr align 4 @_ZL7c_rarg0, i64 4, i1 false)
  call void @llvm.memcpy.p0.p0.i64(ptr align 4 %10, ptr align 4 @_ZL7c_rarg1, i64 4, i1 false)
  call void @llvm.memcpy.p0.p0.i64(ptr align 4 %11, ptr align 4 @_ZL7c_rarg2, i64 4, i1 false)
  call void @llvm.memcpy.p0.p0.i64(ptr align 4 %12, ptr align 4 @_ZL7c_rarg3, i64 4, i1 false)
  call void @llvm.memcpy.p0.p0.i64(ptr align 4 %13, ptr align 4 @_ZL4xmm0, i64 4, i1 false)
  call void @llvm.memcpy.p0.p0.i64(ptr align 4 %14, ptr align 4 @_ZL4xmm1, i64 4, i1 false)
  call void @llvm.memcpy.p0.p0.i64(ptr align 4 %15, ptr align 4 @_ZL4xmm2, i64 4, i1 false)
  call void @llvm.memcpy.p0.p0.i64(ptr align 4 %16, ptr align 4 @_ZL4xmm3, i64 4, i1 false)
  call void @llvm.memcpy.p0.p0.i64(ptr align 4 %17, ptr align 4 @_ZL4xmm4, i64 4, i1 false)
  call void @llvm.memcpy.p0.p0.i64(ptr align 4 %18, ptr align 4 @_ZL4xmm5, i64 4, i1 false)
  call void @llvm.memcpy.p0.p0.i64(ptr align 4 %19, ptr align 4 @_ZL4xmm6, i64 4, i1 false)
  call void @llvm.memcpy.p0.p0.i64(ptr align 4 %20, ptr align 4 @_ZL4xmm7, i64 4, i1 false)
  %46 = getelementptr inbounds %class.StubCodeGenerator, ptr %37, i32 0, i32 2
  %47 = load ptr, ptr %46, align 8
  call void @_ZN14MacroAssembler5enterEv(ptr noundef nonnull align 8 dereferenceable(40) %47)
  %48 = getelementptr inbounds %class.StubCodeGenerator, ptr %37, i32 0, i32 2
  %49 = load ptr, ptr %48, align 8
  call void @llvm.memcpy.p0.p0.i64(ptr align 4 %21, ptr align 4 @_ZL3rsp, i64 4, i1 false)
  %50 = getelementptr inbounds %class.Register, ptr %21, i32 0, i32 0
  %51 = load i32, ptr %50, align 4
  call void @_ZN14MacroAssembler6subptrE8Registeri(ptr noundef nonnull align 8 dereferenceable(40) %49, i32 %51, i32 noundef 32)
  %52 = getelementptr inbounds %class.StubCodeGenerator, ptr %37, i32 0, i32 2
  %53 = load ptr, ptr %52, align 8
  call void @llvm.memcpy.p0.p0.i64(ptr align 4 %22, ptr align 4 %13, i64 4, i1 false)
  call void @llvm.memcpy.p0.p0.i64(ptr align 4 %23, ptr align 4 %14, i64 4, i1 false)
  call void @llvm.memcpy.p0.p0.i64(ptr align 4 %24, ptr align 4 %15, i64 4, i1 false)
  call void @llvm.memcpy.p0.p0.i64(ptr align 4 %25, ptr align 4 %16, i64 4, i1 false)
  call void @llvm.memcpy.p0.p0.i64(ptr align 4 %26, ptr align 4 %17, i64 4, i1 false)
  call void @llvm.memcpy.p0.p0.i64(ptr align 4 %27, ptr align 4 %18, i64 4, i1 false)
  call void @llvm.memcpy.p0.p0.i64(ptr align 4 %28, ptr align 4 %19, i64 4, i1 false)
  call void @llvm.memcpy.p0.p0.i64(ptr align 4 %29, ptr align 4 %20, i64 4, i1 false)
  call void @llvm.memcpy.p0.p0.i64(ptr align 4 %30, ptr align 4 %9, i64 4, i1 false)
  call void @llvm.memcpy.p0.p0.i64(ptr align 4 %31, ptr align 4 %10, i64 4, i1 false)
  call void @llvm.memcpy.p0.p0.i64(ptr align 4 %32, ptr align 4 %11, i64 4, i1 false)
  call void @llvm.memcpy.p0.p0.i64(ptr align 4 %33, ptr align 4 %12, i64 4, i1 false)
  call void @llvm.memcpy.p0.p0.i64(ptr align 4 %34, ptr align 4 @_ZL3rsp, i64 4, i1 false)
  %54 = load i8, ptr %5, align 1
  %55 = trunc i8 %54 to i1
  %56 = getelementptr inbounds %class.XMMRegister, ptr %22, i32 0, i32 0
  %57 = load i32, ptr %56, align 4
  %58 = getelementptr inbounds %class.XMMRegister, ptr %23, i32 0, i32 0
  %59 = load i32, ptr %58, align 4
  %60 = getelementptr inbounds %class.XMMRegister, ptr %24, i32 0, i32 0
  %61 = load i32, ptr %60, align 4
  %62 = getelementptr inbounds %class.XMMRegister, ptr %25, i32 0, i32 0
  %63 = load i32, ptr %62, align 4
  %64 = getelementptr inbounds %class.XMMRegister, ptr %26, i32 0, i32 0
  %65 = load i32, ptr %64, align 4
  %66 = getelementptr inbounds %class.XMMRegister, ptr %27, i32 0, i32 0
  %67 = load i32, ptr %66, align 4
  %68 = getelementptr inbounds %class.XMMRegister, ptr %28, i32 0, i32 0
  %69 = load i32, ptr %68, align 4
  %70 = getelementptr inbounds %class.XMMRegister, ptr %29, i32 0, i32 0
  %71 = load i32, ptr %70, align 4
  %72 = getelementptr inbounds %class.Register, ptr %30, i32 0, i32 0
  %73 = load i32, ptr %72, align 4
  %74 = getelementptr inbounds %class.Register, ptr %31, i32 0, i32 0
  %75 = load i32, ptr %74, align 4
  %76 = getelementptr inbounds %class.Register, ptr %32, i32 0, i32 0
  %77 = load i32, ptr %76, align 4
  %78 = getelementptr inbounds %class.Register, ptr %33, i32 0, i32 0
  %79 = load i32, ptr %78, align 4
  %80 = getelementptr inbounds %class.Register, ptr %34, i32 0, i32 0
  %81 = load i32, ptr %80, align 4
  call void @_ZN14MacroAssembler9fast_sha1E11XMMRegisterS0_S0_S0_S0_S0_S0_S0_8RegisterS1_S1_S1_S1_b(ptr noundef nonnull align 8 dereferenceable(40) %53, i32 %57, i32 %59, i32 %61, i32 %63, i32 %65, i32 %67, i32 %69, i32 %71, i32 %73, i32 %75, i32 %77, i32 %79, i32 %81, i1 noundef zeroext %55)
  %82 = getelementptr inbounds %class.StubCodeGenerator, ptr %37, i32 0, i32 2
  %83 = load ptr, ptr %82, align 8
  call void @llvm.memcpy.p0.p0.i64(ptr align 4 %35, ptr align 4 @_ZL3rsp, i64 4, i1 false)
  %84 = getelementptr inbounds %class.Register, ptr %35, i32 0, i32 0
  %85 = load i32, ptr %84, align 4
  call void @_ZN14MacroAssembler6addptrE8Registeri(ptr noundef nonnull align 8 dereferenceable(40) %83, i32 %85, i32 noundef 32)
  %86 = getelementptr inbounds %class.StubCodeGenerator, ptr %37, i32 0, i32 2
  %87 = load ptr, ptr %86, align 8
  call void @_ZN14MacroAssembler5leaveEv(ptr noundef nonnull align 8 dereferenceable(40) %87)
  %88 = getelementptr inbounds %class.StubCodeGenerator, ptr %37, i32 0, i32 2
  %89 = load ptr, ptr %88, align 8
  call void @_ZN9Assembler3retEi(ptr noundef nonnull align 8 dereferenceable(40) %89, i32 noundef 0)
  %90 = load ptr, ptr %8, align 8
  call void @_ZN12StubCodeMarkD1Ev(ptr noundef nonnull align 8 dereferenceable(16) %7) #7
  ret ptr %90
}