; Function Attrs: mustprogress nounwind uwtable
define hidden noundef ptr @_ZN13StubGenerator26generate_sha1_implCompressEbPKc(ptr noundef nonnull align 8 dereferenceable(24) %0, i1 noundef zeroext %1, ptr noundef %2) local_unnamed_addr #0 align 2 {
  %4 = alloca %class.StubCodeMark, align 8
  %5 = getelementptr inbounds i8, ptr %0, i64 16
  %6 = load ptr, ptr %5, align 8
  %7 = load i64, ptr @CodeEntryAlignment, align 8
  %8 = trunc i64 %7 to i32
  tail call void @_ZN14MacroAssembler5alignEj(ptr noundef nonnull align 8 dereferenceable(40) %6, i32 noundef %8) #12
  call void @_ZN12StubCodeMarkC1EP17StubCodeGeneratorPKcS3_(ptr noundef nonnull align 8 dereferenceable(16) %4, ptr noundef nonnull %0, ptr noundef nonnull @.str, ptr noundef %2) #12
  %9 = load ptr, ptr %5, align 8
  %10 = getelementptr inbounds i8, ptr %9, i64 8
  %11 = load ptr, ptr %10, align 8
  %12 = getelementptr inbounds i8, ptr %11, i64 16
  %13 = load ptr, ptr %12, align 8
  call void @_ZN14MacroAssembler5enterEv(ptr noundef nonnull align 8 dereferenceable(40) %9) #12
  %14 = load ptr, ptr %5, align 8
  call void @_ZN14MacroAssembler6subptrE8Registeri(ptr noundef nonnull align 8 dereferenceable(40) %14, i32 4, i32 noundef 32) #12
  %15 = load ptr, ptr %5, align 8
  call void @_ZN14MacroAssembler9fast_sha1E11XMMRegisterS0_S0_S0_S0_S0_S0_S0_8RegisterS1_S1_S1_S1_b(ptr noundef nonnull align 8 dereferenceable(40) %15, i32 0, i32 1, i32 2, i32 3, i32 4, i32 5, i32 6, i32 7, i32 7, i32 6, i32 2, i32 1, i32 4, i1 noundef zeroext %1) #12
  %16 = load ptr, ptr %5, align 8
  call void @_ZN14MacroAssembler6addptrE8Registeri(ptr noundef nonnull align 8 dereferenceable(40) %16, i32 4, i32 noundef 32) #12
  %17 = load ptr, ptr %5, align 8
  call void @_ZN14MacroAssembler5leaveEv(ptr noundef nonnull align 8 dereferenceable(40) %17) #12
  %18 = load ptr, ptr %5, align 8
  call void @_ZN9Assembler3retEi(ptr noundef nonnull align 8 dereferenceable(40) %18, i32 noundef 0) #12
  call void @_ZN12StubCodeMarkD1Ev(ptr noundef nonnull align 8 dereferenceable(16) %4) #12
  ret ptr %13
}